target datalayout = "e-m:e-p270:32:32-p271:32:32-p272:64:64-i64:64-i128:128-f80:128-n8:16:32:64-S128"
target triple = "x86_64-unknown-linux-gnu"

%"struct.std::_Vector_base" = type { %"struct.std::_Vector_base<std::__cxx11::basic_string<char>, std::allocator<std::__cxx11::basic_string<char>>>::_Vector_impl" }
%"struct.std::_Vector_base<std::__cxx11::basic_string<char>, std::allocator<std::__cxx11::basic_string<char>>>::_Vector_impl" = type { %"struct.std::_Vector_base<std::__cxx11::basic_string<char>, std::allocator<std::__cxx11::basic_string<char>>>::_Vector_impl_data" }
%"struct.std::_Vector_base<std::__cxx11::basic_string<char>, std::allocator<std::__cxx11::basic_string<char>>>::_Vector_impl_data" = type { ptr, ptr, ptr }
%"struct.Assimp::OpenGEX::OpenGEXImporter::RefInfo" = type { ptr, i32, %"class.std::vector" }
%"class.std::vector" = type { %"struct.std::_Vector_base" }

; Function Attrs: mustprogress uwtable
define hidden void @_ZN6Assimp7OpenGEX15OpenGEXImporter7RefInfoC2EP6aiNodeNS2_4TypeERSt6vectorINSt7__cxx1112basic_stringIcSt11char_traitsIcESaIcEEESaISC_EE(ptr noundef nonnull align 8 dereferenceable(40) %this, ptr noundef %node, i32 noundef %type, ptr noundef nonnull align 8 dereferenceable(24) %names) unnamed_addr #4 align 2 {
entry:
  %this.addr = alloca ptr, align 8
  %node.addr = alloca ptr, align 8
  %type.addr = alloca i32, align 4
  %names.addr = alloca ptr, align 8
  store ptr %this, ptr %this.addr, align 8
  store ptr %node, ptr %node.addr, align 8
  store i32 %type, ptr %type.addr, align 4
  store ptr %names, ptr %names.addr, align 8
  %this1 = load ptr, ptr %this.addr, align 8
  %m_node = getelementptr inbounds %"struct.Assimp::OpenGEX::OpenGEXImporter::RefInfo", ptr %this1, i32 0, i32 0
  %0 = load ptr, ptr %node.addr, align 8
  store ptr %0, ptr %m_node, align 8
  %m_type = getelementptr inbounds %"struct.Assimp::OpenGEX::OpenGEXImporter::RefInfo", ptr %this1, i32 0, i32 1
  %1 = load i32, ptr %type.addr, align 4
  store i32 %1, ptr %m_type, align 8
  %m_Names = getelementptr inbounds %"struct.Assimp::OpenGEX::OpenGEXImporter::RefInfo", ptr %this1, i32 0, i32 2
  %2 = load ptr, ptr %names.addr, align 8
  call void @_ZNSt6vectorINSt7__cxx1112basic_stringIcSt11char_traitsIcESaIcEEESaIS5_EEC2ERKS7_(ptr noundef nonnull align 8 dereferenceable(24) %m_Names, ptr noundef nonnull align 8 dereferenceable(24) %2)
  ret void
}