; Function Attrs: mustprogress uwtable
define hidden void @_ZN6Assimp7OpenGEX15OpenGEXImporter7RefInfoC2EP6aiNodeNS2_4TypeERSt6vectorINSt7__cxx1112basic_stringIcSt11char_traitsIcESaIcEEESaISC_EE(ptr noundef nonnull align 8 dereferenceable(40) %this, ptr noundef %node, i32 noundef %type, ptr noundef nonnull align 8 dereferenceable(24) %names) unnamed_addr #7 align 2 {
entry:
  store ptr %node, ptr %this, align 8
  %m_type = getelementptr inbounds i8, ptr %this, i64 8
  store i32 %type, ptr %m_type, align 8
  %m_Names = getelementptr inbounds i8, ptr %this, i64 16
  tail call void @_ZNSt6vectorINSt7__cxx1112basic_stringIcSt11char_traitsIcESaIcEEESaIS5_EEC2ERKS7_(ptr noundef nonnull align 8 dereferenceable(24) %m_Names, ptr noundef nonnull align 8 dereferenceable(24) %names)
  ret void
}